target datalayout = "e-m:e-p270:32:32-p271:32:32-p272:64:64-i64:64-i128:128-f80:128-n8:16:32:64-S128"
target triple = "x86_64-pc-linux-gnu"

@stderr = external global ptr, align 8
@mime_type = external global ptr, align 8
@.str.26 = private unnamed_addr constant [36 x i8] c"No slurmstepd's found on this node\0A\00", align 1
@.str.30 = private unnamed_addr constant [6 x i8] c"JOBID\00", align 1
@.str.31 = private unnamed_addr constant [7 x i8] c"STEPID\00", align 1
@.str.34 = private unnamed_addr constant [11 x i8] c"%-8s %-8s\0A\00", align 1

; Function Attrs: nounwind uwtable
define dso_local void @scontrol_list_steps(i32 noundef %0, ptr noundef %1) #0 {
  %3 = alloca i32, align 4
  %4 = alloca ptr, align 8
  %5 = alloca ptr, align 8
  %6 = alloca ptr, align 8
  %7 = alloca ptr, align 8
  store i32 %0, ptr %3, align 4
  store ptr %1, ptr %4, align 8
  call void @llvm.lifetime.start.p0(i64 8, ptr %5) #9
  store ptr null, ptr %5, align 8
  call void @llvm.lifetime.start.p0(i64 8, ptr %6) #9
  store ptr null, ptr %6, align 8
  call void @llvm.lifetime.start.p0(i64 8, ptr %7) #9
  %8 = load i32, ptr %3, align 4
  %9 = icmp ne i32 %8, 0
  br i1 %9, label %10, label %14

10:                                               ; preds = %2
  %11 = load ptr, ptr %4, align 8
  %12 = getelementptr inbounds ptr, ptr %11, i64 1
  %13 = load ptr, ptr %12, align 8
  store ptr %13, ptr %6, align 8
  br label %14

14:                                               ; preds = %10, %2
  %15 = load ptr, ptr %6, align 8
  %16 = call ptr @stepd_available(ptr noundef null, ptr noundef %15)
  store ptr %16, ptr %7, align 8
  %17 = load ptr, ptr %7, align 8
  %18 = icmp ne ptr %17, null
  br i1 %18, label %19, label %23

19:                                               ; preds = %14
  %20 = load ptr, ptr %7, align 8
  %21 = call i32 @list_count(ptr noundef %20)
  %22 = icmp ne i32 %21, 0
  br i1 %22, label %33, label %23

23:                                               ; preds = %19, %14
  %24 = load ptr, ptr @mime_type, align 8
  %25 = icmp ne ptr %24, null
  br i1 %25, label %26, label %29

26:                                               ; preds = %23
  %27 = load i32, ptr %3, align 4
  %28 = load ptr, ptr %4, align 8
  call void @_dump_liststeps(ptr noundef null, i32 noundef %27, ptr noundef %28)
  br label %32

29:                                               ; preds = %23
  %30 = load ptr, ptr @stderr, align 8
  %31 = call i32 (ptr, ptr, ...) @fprintf(ptr noundef %30, ptr noundef @.str.26) #9
  br label %32

32:                                               ; preds = %29, %26
  br label %48

33:                                               ; preds = %19
  %34 = call ptr @list_create(ptr noundef @_free_liststeps_info)
  store ptr %34, ptr %5, align 8
  %35 = load ptr, ptr %7, align 8
  %36 = load ptr, ptr %5, align 8
  %37 = call i32 @list_for_each(ptr noundef %35, ptr noundef @_add_to_liststeps_list, ptr noundef %36)
  %38 = load ptr, ptr @mime_type, align 8
  %39 = icmp ne ptr %38, null
  br i1 %39, label %40, label %44

40:                                               ; preds = %33
  %41 = load ptr, ptr %5, align 8
  %42 = load i32, ptr %3, align 4
  %43 = load ptr, ptr %4, align 8
  call void @_dump_liststeps(ptr noundef %41, i32 noundef %42, ptr noundef %43)
  br label %48

44:                                               ; preds = %33
  %45 = call i32 (ptr, ...) @printf(ptr noundef @.str.34, ptr noundef @.str.30, ptr noundef @.str.31)
  %46 = load ptr, ptr %5, align 8
  %47 = call i32 @list_for_each(ptr noundef %46, ptr noundef @_print_liststeps_info, ptr noundef null)
  br label %48

48:                                               ; preds = %44, %40, %32
  br label %49

49:                                               ; preds = %48
  %50 = load ptr, ptr %5, align 8
  %51 = icmp ne ptr %50, null
  br i1 %51, label %52, label %54

52:                                               ; preds = %49
  %53 = load ptr, ptr %5, align 8
  call void @list_destroy(ptr noundef %53)
  br label %54

54:                                               ; preds = %52, %49
  store ptr null, ptr %5, align 8
  br label %55

55:                                               ; preds = %54
  br label %56

56:                                               ; preds = %55
  br label %57

57:                                               ; preds = %56
  %58 = load ptr, ptr %7, align 8
  %59 = icmp ne ptr %58, null
  br i1 %59, label %60, label %62

60:                                               ; preds = %57
  %61 = load ptr, ptr %7, align 8
  call void @list_destroy(ptr noundef %61)
  br label %62

62:                                               ; preds = %60, %57
  store ptr null, ptr %7, align 8
  br label %63

63:                                               ; preds = %62
  br label %64

64:                                               ; preds = %63
  call void @llvm.lifetime.end.p0(i64 8, ptr %7) #9
  call void @llvm.lifetime.end.p0(i64 8, ptr %6) #9
  call void @llvm.lifetime.end.p0(i64 8, ptr %5) #9
  ret void
}