; Function Attrs: nounwind uwtable
define dso_local void @scontrol_list_steps(i32 noundef %0, ptr noundef %1) local_unnamed_addr #0 {
  %.not = icmp eq i32 %0, 0
  br i1 %.not, label %6, label %3

3:                                                ; preds = %2
  %4 = getelementptr inbounds nuw i8, ptr %1, i64 8
  %5 = load ptr, ptr %4, align 8
  br label %6

6:                                                ; preds = %3, %2
  %.0 = phi ptr [ %5, %3 ], [ null, %2 ]
  %7 = tail call ptr @stepd_available(ptr noundef null, ptr noundef %.0) #16
  %.not18 = icmp eq ptr %7, null
  br i1 %.not18, label %10, label %8

8:                                                ; preds = %6
  %9 = tail call i32 @list_count(ptr noundef nonnull %7) #16
  %.not19 = icmp eq i32 %9, 0
  br i1 %.not19, label %10, label %16

10:                                               ; preds = %8, %6
  %11 = load ptr, ptr @mime_type, align 8
  %.not20 = icmp eq ptr %11, null
  br i1 %.not20, label %13, label %12

12:                                               ; preds = %10
  tail call fastcc void @_dump_liststeps(ptr noundef null, i32 noundef %0, ptr noundef %1)
  br label %26

13:                                               ; preds = %10
  %14 = load ptr, ptr @stderr, align 8
  %15 = tail call i64 @fwrite(ptr nonnull @.str.26, i64 35, i64 1, ptr %14) #18
  br label %26

16:                                               ; preds = %8
  %17 = tail call ptr @list_create(ptr noundef nonnull @_free_liststeps_info) #16
  %18 = tail call i32 @list_for_each(ptr noundef nonnull %7, ptr noundef nonnull @_add_to_liststeps_list, ptr noundef %17) #16
  %19 = load ptr, ptr @mime_type, align 8
  %.not21 = icmp eq ptr %19, null
  br i1 %.not21, label %21, label %20

20:                                               ; preds = %16
  tail call fastcc void @_dump_liststeps(ptr noundef %17, i32 noundef %0, ptr noundef %1)
  br label %24

21:                                               ; preds = %16
  %22 = tail call i32 (ptr, ...) @printf(ptr noundef nonnull dereferenceable(1) @.str.34, ptr noundef nonnull @str.5, ptr noundef nonnull @.str.31)
  %23 = tail call i32 @list_for_each(ptr noundef %17, ptr noundef nonnull @_print_liststeps_info, ptr noundef null) #16
  br label %24

24:                                               ; preds = %20, %21
  %.not22 = icmp eq ptr %17, null
  br i1 %.not22, label %.thread26, label %25

25:                                               ; preds = %24
  tail call void @list_destroy(ptr noundef nonnull %17) #16
  br label %.thread26

26:                                               ; preds = %12, %13
  br i1 %.not18, label %27, label %.thread26

.thread26:                                        ; preds = %24, %25, %26
  tail call void @list_destroy(ptr noundef nonnull %7) #16
  br label %27

27:                                               ; preds = %.thread26, %26
  ret void
}